ARM GAS  C:\Users\aasys\AppData\Local\Temp\ccMwfr5b.s 			page 1


   1              		.syntax unified
   2              		.cpu cortex-m0
   3              		.fpu softvfp
   4              		.eabi_attribute 20, 1
   5              		.eabi_attribute 21, 1
   6              		.eabi_attribute 23, 3
   7              		.eabi_attribute 24, 1
   8              		.eabi_attribute 25, 1
   9              		.eabi_attribute 26, 1
  10              		.eabi_attribute 30, 1
  11              		.eabi_attribute 34, 0
  12              		.eabi_attribute 18, 4
  13              		.thumb
  14              		.syntax unified
  15              		.file	"main.c"
  16              		.text
  17              	.Ltext0:
  18              		.cfi_sections	.debug_frame
  19              		.section	.text.InterruptHandler,"ax",%progbits
  20              		.align	2
  21              		.global	InterruptHandler
  22              		.code	16
  23              		.thumb_func
  24              		.type	InterruptHandler, %function
  25              	InterruptHandler:
  26              	.LFB33:
  27              		.file 1 "main.c"
   1:main.c        **** /* ========================================
   2:main.c        ****  * Aasys Sresta
   3:main.c        ****  * 02/15/2018
   4:main.c        ****  * ========================================
   5:main.c        **** */
   6:main.c        **** #include "project.h"
   7:main.c        **** #include <stdio.h>
   8:main.c        **** 
   9:main.c        **** // states definition
  10:main.c        **** #define RISING_EDGE 1
  11:main.c        **** #define FALLING_EDGE 0
  12:main.c        **** 
  13:main.c        **** // capture and output values
  14:main.c        **** uint16 CapturePosEdge;
  15:main.c        **** uint16 PulseWidth;
  16:main.c        **** 
  17:main.c        **** // Declare flag and state
  18:main.c        **** uint8 data_ready = 0;
  19:main.c        **** uint8 state = RISING_EDGE;
  20:main.c        **** 
  21:main.c        **** // Interrupt routine: reads new count updates
  22:main.c        **** // old count t0 and flags control loop
  23:main.c        **** CY_ISR(InterruptHandler) {
  28              		.loc 1 23 0
  29              		.cfi_startproc
  30              		@ args = 0, pretend = 0, frame = 0
  31              		@ frame_needed = 0, uses_anonymous_args = 0
  32 0000 10B5     		push	{r4, lr}
  33              		.cfi_def_cfa_offset 8
  34              		.cfi_offset 4, -8
ARM GAS  C:\Users\aasys\AppData\Local\Temp\ccMwfr5b.s 			page 2


  35              		.cfi_offset 14, -4
  24:main.c        ****     Timer_ClearInterrupt(Timer_INTR_MASK_CC_MATCH);
  36              		.loc 1 24 0
  37 0002 0220     		movs	r0, #2
  38 0004 FFF7FEFF 		bl	Timer_ClearInterrupt
  39              	.LVL0:
  25:main.c        ****     
  26:main.c        ****     // State Machine
  27:main.c        ****     if (state == RISING_EDGE) {
  40              		.loc 1 27 0
  41 0008 104B     		ldr	r3, .L4
  42 000a 1B78     		ldrb	r3, [r3]
  43 000c 012B     		cmp	r3, #1
  44 000e 0AD1     		bne	.L2
  28:main.c        ****         CapturePosEdge = Timer_ReadCapture();
  45              		.loc 1 28 0
  46 0010 FFF7FEFF 		bl	Timer_ReadCapture
  47              	.LVL1:
  48 0014 0E4B     		ldr	r3, .L4+4
  49 0016 1880     		strh	r0, [r3]
  29:main.c        ****         Timer_SetCaptureMode(Timer_TRIG_FALLING);
  50              		.loc 1 29 0
  51 0018 0120     		movs	r0, #1
  52 001a FFF7FEFF 		bl	Timer_SetCaptureMode
  53              	.LVL2:
  30:main.c        ****         // next state
  31:main.c        ****         state = FALLING_EDGE;
  54              		.loc 1 31 0
  55 001e 0022     		movs	r2, #0
  56 0020 0A4B     		ldr	r3, .L4
  57 0022 1A70     		strb	r2, [r3]
  58 0024 10E0     		b	.L1
  59              	.L2:
  32:main.c        ****     } else if (state == FALLING_EDGE) {
  60              		.loc 1 32 0
  61 0026 002B     		cmp	r3, #0
  62 0028 0ED1     		bne	.L1
  33:main.c        ****         // Calculate PulseWidth
  34:main.c        ****         PulseWidth = Timer_ReadCapture() - CapturePosEdge;
  63              		.loc 1 34 0
  64 002a FFF7FEFF 		bl	Timer_ReadCapture
  65              	.LVL3:
  66 002e 084B     		ldr	r3, .L4+4
  67 0030 1B88     		ldrh	r3, [r3]
  68 0032 C01A     		subs	r0, r0, r3
  69 0034 074B     		ldr	r3, .L4+8
  70 0036 1880     		strh	r0, [r3]
  35:main.c        ****         // Change capture mode to rising
  36:main.c        ****         Timer_SetCaptureMode(Timer_TRIG_RISING);
  71              		.loc 1 36 0
  72 0038 0020     		movs	r0, #0
  73 003a FFF7FEFF 		bl	Timer_SetCaptureMode
  74              	.LVL4:
  37:main.c        ****         // next_state
  38:main.c        ****         state = RISING_EDGE;
  75              		.loc 1 38 0
  76 003e 0123     		movs	r3, #1
ARM GAS  C:\Users\aasys\AppData\Local\Temp\ccMwfr5b.s 			page 3


  77 0040 024A     		ldr	r2, .L4
  78 0042 1370     		strb	r3, [r2]
  39:main.c        ****         
  40:main.c        ****         // data ready
  41:main.c        ****         data_ready = 1;       
  79              		.loc 1 41 0
  80 0044 044A     		ldr	r2, .L4+12
  81 0046 1370     		strb	r3, [r2]
  82              	.L1:
  42:main.c        ****     }    
  43:main.c        **** }
  83              		.loc 1 43 0
  84              		@ sp needed
  85 0048 10BD     		pop	{r4, pc}
  86              	.L5:
  87 004a C046     		.align	2
  88              	.L4:
  89 004c 00000000 		.word	.LANCHOR0
  90 0050 00000000 		.word	CapturePosEdge
  91 0054 00000000 		.word	PulseWidth
  92 0058 00000000 		.word	.LANCHOR1
  93              		.cfi_endproc
  94              	.LFE33:
  95              		.size	InterruptHandler, .-InterruptHandler
  96              		.section	.text.printInt,"ax",%progbits
  97              		.align	2
  98              		.global	printInt
  99              		.code	16
 100              		.thumb_func
 101              		.type	printInt, %function
 102              	printInt:
 103              	.LFB34:
  44:main.c        **** 
  45:main.c        **** // Function print integer to serial terminal
  46:main.c        **** // sprintf prints int to string at buffer
  47:main.c        **** // UartPutString prints string on serial terminal
  48:main.c        **** void printInt(int i) {
 104              		.loc 1 48 0
 105              		.cfi_startproc
 106              		@ args = 0, pretend = 0, frame = 16
 107              		@ frame_needed = 0, uses_anonymous_args = 0
 108              	.LVL5:
 109 0000 00B5     		push	{lr}
 110              		.cfi_def_cfa_offset 4
 111              		.cfi_offset 14, -4
 112 0002 85B0     		sub	sp, sp, #20
 113              		.cfi_def_cfa_offset 24
 114 0004 0200     		movs	r2, r0
  49:main.c        ****     char buffer[10];
  50:main.c        ****     sprintf(buffer, "%d", i);    
 115              		.loc 1 50 0
 116 0006 0749     		ldr	r1, .L7
 117 0008 01A8     		add	r0, sp, #4
 118              	.LVL6:
 119 000a FFF7FEFF 		bl	sprintf
 120              	.LVL7:
  51:main.c        ****     UART_UartPutString(buffer);
ARM GAS  C:\Users\aasys\AppData\Local\Temp\ccMwfr5b.s 			page 4


 121              		.loc 1 51 0
 122 000e 01A8     		add	r0, sp, #4
 123 0010 FFF7FEFF 		bl	UART_UartPutString
 124              	.LVL8:
  52:main.c        ****     UART_UartPutChar(10); // ascii space
 125              		.loc 1 52 0
 126 0014 0A20     		movs	r0, #10
 127 0016 FFF7FEFF 		bl	UART_SpiUartWriteTxData
 128              	.LVL9:
  53:main.c        ****     UART_UartPutChar(13); // ascii return
 129              		.loc 1 53 0
 130 001a 0D20     		movs	r0, #13
 131 001c FFF7FEFF 		bl	UART_SpiUartWriteTxData
 132              	.LVL10:
  54:main.c        **** }
 133              		.loc 1 54 0
 134 0020 05B0     		add	sp, sp, #20
 135              		@ sp needed
 136 0022 00BD     		pop	{pc}
 137              	.L8:
 138              		.align	2
 139              	.L7:
 140 0024 00000000 		.word	.LC4
 141              		.cfi_endproc
 142              	.LFE34:
 143              		.size	printInt, .-printInt
 144              		.section	.text.main,"ax",%progbits
 145              		.align	2
 146              		.global	main
 147              		.code	16
 148              		.thumb_func
 149              		.type	main, %function
 150              	main:
 151              	.LFB35:
  55:main.c        **** 
  56:main.c        **** int main(void)
  57:main.c        **** {
 152              		.loc 1 57 0
 153              		.cfi_startproc
 154              		@ Volatile: function does not return.
 155              		@ args = 0, pretend = 0, frame = 0
 156              		@ frame_needed = 0, uses_anonymous_args = 0
 157 0000 10B5     		push	{r4, lr}
 158              		.cfi_def_cfa_offset 8
 159              		.cfi_offset 4, -8
 160              		.cfi_offset 14, -4
  58:main.c        ****     CyGlobalIntEnable; /* Enable global interrupts. */
 161              		.loc 1 58 0
 162              		.syntax divided
 163              	@ 58 "main.c" 1
 164 0002 62B6     		CPSIE   i
 165              	@ 0 "" 2
  59:main.c        ****     
  60:main.c        ****     CC_ISR_StartEx(InterruptHandler); // set interrupt address
 166              		.loc 1 60 0
 167              		.thumb
 168              		.syntax unified
ARM GAS  C:\Users\aasys\AppData\Local\Temp\ccMwfr5b.s 			page 5


 169 0004 0B48     		ldr	r0, .L12
 170 0006 FFF7FEFF 		bl	CC_ISR_StartEx
 171              	.LVL11:
  61:main.c        ****     
  62:main.c        ****     UART_Start();  // Start UART
 172              		.loc 1 62 0
 173 000a FFF7FEFF 		bl	UART_Start
 174              	.LVL12:
  63:main.c        ****     PWM_Start();   // Start PWM
 175              		.loc 1 63 0
 176 000e FFF7FEFF 		bl	PWM_Start
 177              	.LVL13:
  64:main.c        ****     Timer_Start(); // Start Timer
 178              		.loc 1 64 0
 179 0012 FFF7FEFF 		bl	Timer_Start
 180              	.LVL14:
 181              	.L10:
  65:main.c        **** 
  66:main.c        ****     // Control Loop
  67:main.c        ****     for(;;)
  68:main.c        ****     {
  69:main.c        ****         if (data_ready == 1) {
 182              		.loc 1 69 0
 183 0016 084B     		ldr	r3, .L12+4
 184 0018 1B78     		ldrb	r3, [r3]
 185 001a 012B     		cmp	r3, #1
 186 001c FBD1     		bne	.L10
  70:main.c        ****             CyDelay(200); // delay 200ms for terminal print 
 187              		.loc 1 70 0
 188 001e C820     		movs	r0, #200
 189 0020 FFF7FEFF 		bl	CyDelay
 190              	.LVL15:
  71:main.c        ****             printInt(PulseWidth);
 191              		.loc 1 71 0
 192 0024 054B     		ldr	r3, .L12+8
 193 0026 1888     		ldrh	r0, [r3]
 194 0028 FFF7FEFF 		bl	printInt
 195              	.LVL16:
  72:main.c        ****             data_ready = 0;
 196              		.loc 1 72 0
 197 002c 0022     		movs	r2, #0
 198 002e 024B     		ldr	r3, .L12+4
 199 0030 1A70     		strb	r2, [r3]
 200 0032 F0E7     		b	.L10
 201              	.L13:
 202              		.align	2
 203              	.L12:
 204 0034 00000000 		.word	InterruptHandler
 205 0038 00000000 		.word	.LANCHOR1
 206 003c 00000000 		.word	PulseWidth
 207              		.cfi_endproc
 208              	.LFE35:
 209              		.size	main, .-main
 210              		.global	state
 211              		.global	data_ready
 212              		.comm	PulseWidth,2,2
 213              		.comm	CapturePosEdge,2,2
ARM GAS  C:\Users\aasys\AppData\Local\Temp\ccMwfr5b.s 			page 6


 214              		.data
 215              		.set	.LANCHOR0,. + 0
 216              		.type	state, %object
 217              		.size	state, 1
 218              	state:
 219 0000 01       		.byte	1
 220              		.section	.rodata.str1.4,"aMS",%progbits,1
 221              		.align	2
 222              	.LC4:
 223 0000 256400   		.ascii	"%d\000"
 224              		.bss
 225              		.set	.LANCHOR1,. + 0
 226              		.type	data_ready, %object
 227              		.size	data_ready, 1
 228              	data_ready:
 229 0000 00       		.space	1
 230              		.text
 231              	.Letext0:
 232              		.file 2 "Generated_Source\\PSoC4/cytypes.h"
 233              		.file 3 "Generated_Source\\PSoC4/Timer.h"
 234              		.file 4 "c:\\program files (x86)\\cypress\\psoc creator\\4.1\\psoc creator\\import\\gnu\\arm\\5.4.
 235              		.file 5 "Generated_Source\\PSoC4/UART_SPI_UART.h"
 236              		.file 6 "Generated_Source\\PSoC4/CC_ISR.h"
 237              		.file 7 "Generated_Source\\PSoC4/UART.h"
 238              		.file 8 "Generated_Source\\PSoC4/PWM.h"
 239              		.file 9 "Generated_Source\\PSoC4/CyLib.h"