ARM GAS  C:\Users\as3828\AppData\Local\Temp\ccDY0ZQy.s 			page 1


   1              		.syntax unified
   2              		.cpu cortex-m0
   3              		.fpu softvfp
   4              		.eabi_attribute 20, 1
   5              		.eabi_attribute 21, 1
   6              		.eabi_attribute 23, 3
   7              		.eabi_attribute 24, 1
   8              		.eabi_attribute 25, 1
   9              		.eabi_attribute 26, 1
  10              		.eabi_attribute 30, 1
  11              		.eabi_attribute 34, 0
  12              		.eabi_attribute 18, 4
  13              		.thumb
  14              		.syntax unified
  15              		.file	"main.c"
  16              		.text
  17              	.Ltext0:
  18              		.cfi_sections	.debug_frame
  19              		.section	.text.PWM_TC_isr,"ax",%progbits
  20              		.align	2
  21              		.global	PWM_TC_isr
  22              		.code	16
  23              		.thumb_func
  24              		.type	PWM_TC_isr, %function
  25              	PWM_TC_isr:
  26              	.LFB32:
  27              		.file 1 "main.c"
   1:main.c        **** /* ========================================
   2:main.c        ****  *
   3:main.c        ****  * Copyright YOUR COMPANY, THE YEAR
   4:main.c        ****  * All Rights Reserved
   5:main.c        ****  * UNPUBLISHED, LICENSED SOFTWARE.
   6:main.c        ****  *
   7:main.c        ****  * CONFIDENTIAL AND PROPRIETARY INFORMATION
   8:main.c        ****  * WHICH IS THE PROPERTY OF your company.
   9:main.c        ****  *
  10:main.c        ****  * ========================================
  11:main.c        **** */
  12:main.c        **** #include "project.h"
  13:main.c        **** 
  14:main.c        **** CY_ISR(PWM_TC_isr){
  28              		.loc 1 14 0
  29              		.cfi_startproc
  30              		@ args = 0, pretend = 0, frame = 0
  31              		@ frame_needed = 0, uses_anonymous_args = 0
  32 0000 10B5     		push	{r4, lr}
  33              		.cfi_def_cfa_offset 8
  34              		.cfi_offset 4, -8
  35              		.cfi_offset 14, -4
  15:main.c        ****     uint32 interrupt_source;
  16:main.c        ****     TC_Sig_Write(1);
  36              		.loc 1 16 0
  37 0002 0120     		movs	r0, #1
  38 0004 FFF7FEFF 		bl	TC_Sig_Write
  39              	.LVL0:
  17:main.c        ****     interrupt_source = PWM_GetInterruptSourceMasked();
  40              		.loc 1 17 0
ARM GAS  C:\Users\as3828\AppData\Local\Temp\ccDY0ZQy.s 			page 2


  41 0008 FFF7FEFF 		bl	PWM_GetInterruptSourceMasked
  42              	.LVL1:
  18:main.c        ****     PWM_ClearInterrupt(interrupt_source);
  43              		.loc 1 18 0
  44 000c FFF7FEFF 		bl	PWM_ClearInterrupt
  45              	.LVL2:
  19:main.c        ****     TC_Sig_Write(0);
  46              		.loc 1 19 0
  47 0010 0020     		movs	r0, #0
  48 0012 FFF7FEFF 		bl	TC_Sig_Write
  49              	.LVL3:
  20:main.c        **** }
  50              		.loc 1 20 0
  51              		@ sp needed
  52 0016 10BD     		pop	{r4, pc}
  53              		.cfi_endproc
  54              	.LFE32:
  55              		.size	PWM_TC_isr, .-PWM_TC_isr
  56              		.section	.text.main,"ax",%progbits
  57              		.align	2
  58              		.global	main
  59              		.code	16
  60              		.thumb_func
  61              		.type	main, %function
  62              	main:
  63              	.LFB33:
  21:main.c        **** 
  22:main.c        **** int main(void)
  23:main.c        **** {
  64              		.loc 1 23 0
  65              		.cfi_startproc
  66              		@ Volatile: function does not return.
  67              		@ args = 0, pretend = 0, frame = 0
  68              		@ frame_needed = 0, uses_anonymous_args = 0
  69 0000 10B5     		push	{r4, lr}
  70              		.cfi_def_cfa_offset 8
  71              		.cfi_offset 4, -8
  72              		.cfi_offset 14, -4
  24:main.c        ****     PWM_Start();
  73              		.loc 1 24 0
  74 0002 FFF7FEFF 		bl	PWM_Start
  75              	.LVL4:
  25:main.c        ****     isr_TC_StartEx(PWM_TC_isr);
  76              		.loc 1 25 0
  77 0006 0248     		ldr	r0, .L4
  78 0008 FFF7FEFF 		bl	isr_TC_StartEx
  79              	.LVL5:
  26:main.c        ****     
  27:main.c        ****     CyGlobalIntEnable; /* Enable global interrupts. */
  80              		.loc 1 27 0
  81              		.syntax divided
  82              	@ 27 "main.c" 1
  83 000c 62B6     		CPSIE   i
  84              	@ 0 "" 2
  85              		.thumb
  86              		.syntax unified
  87              	.L3:
ARM GAS  C:\Users\as3828\AppData\Local\Temp\ccDY0ZQy.s 			page 3


  88 000e FEE7     		b	.L3
  89              	.L5:
  90              		.align	2
  91              	.L4:
  92 0010 00000000 		.word	PWM_TC_isr
  93              		.cfi_endproc
  94              	.LFE33:
  95              		.size	main, .-main
  96              		.text
  97              	.Letext0:
  98              		.file 2 "Generated_Source\\PSoC4/TC_Sig.h"
  99              		.file 3 "Generated_Source\\PSoC4/PWM.h"
 100              		.file 4 "Generated_Source\\PSoC4/isr_TC.h"
 101              		.file 5 "Generated_Source\\PSoC4/cytypes.h"