ARM GAS  C:\Users\aasys\AppData\Local\Temp\ccwfKutG.s 			page 1


   1              		.syntax unified
   2              		.cpu cortex-m0
   3              		.fpu softvfp
   4              		.eabi_attribute 20, 1
   5              		.eabi_attribute 21, 1
   6              		.eabi_attribute 23, 3
   7              		.eabi_attribute 24, 1
   8              		.eabi_attribute 25, 1
   9              		.eabi_attribute 26, 1
  10              		.eabi_attribute 30, 1
  11              		.eabi_attribute 34, 0
  12              		.eabi_attribute 18, 4
  13              		.thumb
  14              		.syntax unified
  15              		.file	"main.c"
  16              		.text
  17              	.Ltext0:
  18              		.cfi_sections	.debug_frame
  19              		.section	.text.InterruptHandler,"ax",%progbits
  20              		.align	2
  21              		.global	InterruptHandler
  22              		.code	16
  23              		.thumb_func
  24              		.type	InterruptHandler, %function
  25              	InterruptHandler:
  26              	.LFB33:
  27              		.file 1 "main.c"
   1:main.c        **** /* ========================================
   2:main.c        ****  * Aasys Sresta
   3:main.c        ****  * 02/15/2018
   4:main.c        ****  * ========================================
   5:main.c        **** */
   6:main.c        **** #include "project.h"
   7:main.c        **** #include <stdio.h>
   8:main.c        **** 
   9:main.c        **** // Number of maximum events captured
  10:main.c        **** #define NUM_Capture 10
  11:main.c        **** 
  12:main.c        **** uint8 InterruptCnt = 0; // Number of interrupts occured
  13:main.c        **** char buffer[10]; // UartPutString buffer
  14:main.c        **** uint32 t0; // timer count
  15:main.c        **** 
  16:main.c        **** // Interrupt routine
  17:main.c        **** CY_ISR(InterruptHandler) {
  28              		.loc 1 17 0
  29              		.cfi_startproc
  30              		@ args = 0, pretend = 0, frame = 0
  31              		@ frame_needed = 0, uses_anonymous_args = 0
  32 0000 70B5     		push	{r4, r5, r6, lr}
  33              		.cfi_def_cfa_offset 16
  34              		.cfi_offset 4, -16
  35              		.cfi_offset 5, -12
  36              		.cfi_offset 6, -8
  37              		.cfi_offset 14, -4
  18:main.c        ****     // Clear Interrupt, CC: Compare/Capture
  19:main.c        ****     Timer_ClearInterrupt(Timer_INTR_MASK_CC_MATCH);
  38              		.loc 1 19 0
ARM GAS  C:\Users\aasys\AppData\Local\Temp\ccwfKutG.s 			page 2


  39 0002 0220     		movs	r0, #2
  40 0004 FFF7FEFF 		bl	Timer_ClearInterrupt
  41              	.LVL0:
  20:main.c        ****     
  21:main.c        ****     // First interrupt | init
  22:main.c        ****     if (InterruptCnt==0)
  42              		.loc 1 22 0
  43 0008 104B     		ldr	r3, .L4
  44 000a 1B78     		ldrb	r3, [r3]
  45 000c 002B     		cmp	r3, #0
  46 000e 04D1     		bne	.L2
  23:main.c        ****         t0=Timer_ReadCapture();
  47              		.loc 1 23 0
  48 0010 FFF7FEFF 		bl	Timer_ReadCapture
  49              	.LVL1:
  50 0014 0E4B     		ldr	r3, .L4+4
  51 0016 1860     		str	r0, [r3]
  52 0018 12E0     		b	.L3
  53              	.L2:
  24:main.c        ****     else {
  25:main.c        ****         // string print int to string of ascii
  26:main.c        ****         // diff of current and previous
  27:main.c        ****         sprintf(buffer, "%d", (int)(Timer_ReadCapture()-t0));
  54              		.loc 1 27 0
  55 001a FFF7FEFF 		bl	Timer_ReadCapture
  56              	.LVL2:
  57 001e 0C4C     		ldr	r4, .L4+4
  58 0020 2368     		ldr	r3, [r4]
  59 0022 C21A     		subs	r2, r0, r3
  60 0024 0B4D     		ldr	r5, .L4+8
  61 0026 0C49     		ldr	r1, .L4+12
  62 0028 2800     		movs	r0, r5
  63 002a FFF7FEFF 		bl	sprintf
  64              	.LVL3:
  28:main.c        ****         UART_UartPutString(buffer);
  65              		.loc 1 28 0
  66 002e 2800     		movs	r0, r5
  67 0030 FFF7FEFF 		bl	UART_UartPutString
  68              	.LVL4:
  29:main.c        ****         UART_UartPutChar(0x20); // ascii space
  69              		.loc 1 29 0
  70 0034 2020     		movs	r0, #32
  71 0036 FFF7FEFF 		bl	UART_SpiUartWriteTxData
  72              	.LVL5:
  30:main.c        ****         t0 = Timer_ReadCapture();
  73              		.loc 1 30 0
  74 003a FFF7FEFF 		bl	Timer_ReadCapture
  75              	.LVL6:
  76 003e 2060     		str	r0, [r4]
  77              	.L3:
  31:main.c        ****     }
  32:main.c        ****     InterruptCnt++; // increment # of interrupts
  78              		.loc 1 32 0
  79 0040 024A     		ldr	r2, .L4
  80 0042 1378     		ldrb	r3, [r2]
  81 0044 0133     		adds	r3, r3, #1
  82 0046 1370     		strb	r3, [r2]
ARM GAS  C:\Users\aasys\AppData\Local\Temp\ccwfKutG.s 			page 3


  33:main.c        **** }
  83              		.loc 1 33 0
  84              		@ sp needed
  85 0048 70BD     		pop	{r4, r5, r6, pc}
  86              	.L5:
  87 004a C046     		.align	2
  88              	.L4:
  89 004c 00000000 		.word	.LANCHOR0
  90 0050 00000000 		.word	t0
  91 0054 00000000 		.word	buffer
  92 0058 00000000 		.word	.LC2
  93              		.cfi_endproc
  94              	.LFE33:
  95              		.size	InterruptHandler, .-InterruptHandler
  96              		.section	.text.main,"ax",%progbits
  97              		.align	2
  98              		.global	main
  99              		.code	16
 100              		.thumb_func
 101              		.type	main, %function
 102              	main:
 103              	.LFB34:
  34:main.c        **** 
  35:main.c        **** int main(void)
  36:main.c        **** {
 104              		.loc 1 36 0
 105              		.cfi_startproc
 106              		@ Volatile: function does not return.
 107              		@ args = 0, pretend = 0, frame = 0
 108              		@ frame_needed = 0, uses_anonymous_args = 0
 109 0000 10B5     		push	{r4, lr}
 110              		.cfi_def_cfa_offset 8
 111              		.cfi_offset 4, -8
 112              		.cfi_offset 14, -4
  37:main.c        ****     CyGlobalIntEnable; /* Enable global interrupts. */
 113              		.loc 1 37 0
 114              		.syntax divided
 115              	@ 37 "main.c" 1
 116 0002 62B6     		CPSIE   i
 117              	@ 0 "" 2
  38:main.c        ****     
  39:main.c        ****     // set interrupt address
  40:main.c        ****     CC_ISR_StartEx(InterruptHandler);
 118              		.loc 1 40 0
 119              		.thumb
 120              		.syntax unified
 121 0004 1548     		ldr	r0, .L11
 122 0006 FFF7FEFF 		bl	CC_ISR_StartEx
 123              	.LVL7:
  41:main.c        ****     UART_Start();
 124              		.loc 1 41 0
 125 000a FFF7FEFF 		bl	UART_Start
 126              	.LVL8:
  42:main.c        ****     
  43:main.c        ****     // After reset the board put string
  44:main.c        ****     UART_UartPutString(10); // ascii new line
 127              		.loc 1 44 0
ARM GAS  C:\Users\aasys\AppData\Local\Temp\ccwfKutG.s 			page 4


 128 000e 0A20     		movs	r0, #10
 129 0010 FFF7FEFF 		bl	UART_UartPutString
 130              	.LVL9:
  45:main.c        ****     UART_UartPutString(13); // ascii return
 131              		.loc 1 45 0
 132 0014 0D20     		movs	r0, #13
 133 0016 FFF7FEFF 		bl	UART_UartPutString
 134              	.LVL10:
  46:main.c        ****     UART_UartPutString("Press button to start");
 135              		.loc 1 46 0
 136 001a 1148     		ldr	r0, .L11+4
 137 001c FFF7FEFF 		bl	UART_UartPutString
 138              	.LVL11:
  47:main.c        ****     UART_UartPutString(10); // ascii new line
 139              		.loc 1 47 0
 140 0020 0A20     		movs	r0, #10
 141 0022 FFF7FEFF 		bl	UART_UartPutString
 142              	.LVL12:
  48:main.c        ****     UART_UartPutString(13); // ascii return
 143              		.loc 1 48 0
 144 0026 0D20     		movs	r0, #13
 145 0028 FFF7FEFF 		bl	UART_UartPutString
 146              	.LVL13:
 147              	.L7:
  49:main.c        ****     
  50:main.c        ****     // stuck on switch press and release    
  51:main.c        ****     while (Capture_Pin_Read());
 148              		.loc 1 51 0 discriminator 1
 149 002c FFF7FEFF 		bl	Capture_Pin_Read
 150              	.LVL14:
 151 0030 0028     		cmp	r0, #0
 152 0032 FBD1     		bne	.L7
 153              	.L8:
  52:main.c        ****     while (!Capture_Pin_Read());
 154              		.loc 1 52 0 discriminator 1
 155 0034 FFF7FEFF 		bl	Capture_Pin_Read
 156              	.LVL15:
 157 0038 0028     		cmp	r0, #0
 158 003a FBD0     		beq	.L8
  53:main.c        ****     
  54:main.c        ****     PWM_Start(); // start PWM
 159              		.loc 1 54 0
 160 003c FFF7FEFF 		bl	PWM_Start
 161              	.LVL16:
  55:main.c        ****     
  56:main.c        ****     Timer_Start();
 162              		.loc 1 56 0
 163 0040 FFF7FEFF 		bl	Timer_Start
 164              	.LVL17:
 165              	.L9:
  57:main.c        ****     
  58:main.c        ****     // wait for 10 captures, i.e. 9 diffs
  59:main.c        ****     while (InterruptCnt < NUM_Capture);
 166              		.loc 1 59 0 discriminator 1
 167 0044 074B     		ldr	r3, .L11+8
 168 0046 1B78     		ldrb	r3, [r3]
 169 0048 092B     		cmp	r3, #9
ARM GAS  C:\Users\aasys\AppData\Local\Temp\ccwfKutG.s 			page 5


 170 004a FBD9     		bls	.L9
  60:main.c        ****     
  61:main.c        ****     // Stop when done
  62:main.c        ****     Timer_Stop();
 171              		.loc 1 62 0
 172 004c FFF7FEFF 		bl	Timer_Stop
 173              	.LVL18:
  63:main.c        ****     CC_ISR_Disable();
 174              		.loc 1 63 0
 175 0050 FFF7FEFF 		bl	CC_ISR_Disable
 176              	.LVL19:
  64:main.c        ****     PWM_Stop();
 177              		.loc 1 64 0
 178 0054 FFF7FEFF 		bl	PWM_Stop
 179              	.LVL20:
 180              	.L10:
 181 0058 FEE7     		b	.L10
 182              	.L12:
 183 005a C046     		.align	2
 184              	.L11:
 185 005c 00000000 		.word	InterruptHandler
 186 0060 04000000 		.word	.LC6
 187 0064 00000000 		.word	.LANCHOR0
 188              		.cfi_endproc
 189              	.LFE34:
 190              		.size	main, .-main
 191              		.comm	t0,4,4
 192              		.comm	buffer,10,4
 193              		.global	InterruptCnt
 194              		.section	.rodata.str1.4,"aMS",%progbits,1
 195              		.align	2
 196              	.LC2:
 197 0000 256400   		.ascii	"%d\000"
 198 0003 00       		.space	1
 199              	.LC6:
 200 0004 50726573 		.ascii	"Press button to start\000"
 200      73206275 
 200      74746F6E 
 200      20746F20 
 200      73746172 
 201              		.bss
 202              		.set	.LANCHOR0,. + 0
 203              		.type	InterruptCnt, %object
 204              		.size	InterruptCnt, 1
 205              	InterruptCnt:
 206 0000 00       		.space	1
 207              		.text
 208              	.Letext0:
 209              		.file 2 "Generated_Source\\PSoC4/cytypes.h"
 210              		.file 3 "Generated_Source\\PSoC4/Timer.h"
 211              		.file 4 "c:\\program files (x86)\\cypress\\psoc creator\\4.1\\psoc creator\\import\\gnu\\arm\\5.4.
 212              		.file 5 "Generated_Source\\PSoC4/UART_SPI_UART.h"
 213              		.file 6 "Generated_Source\\PSoC4/CC_ISR.h"
 214              		.file 7 "Generated_Source\\PSoC4/UART.h"
 215              		.file 8 "Generated_Source\\PSoC4/Capture_Pin.h"
 216              		.file 9 "Generated_Source\\PSoC4/PWM.h"