ARM GAS  C:\Users\aasys\AppData\Local\Temp\ccWD6EIn.s 			page 1


   1              		.syntax unified
   2              		.cpu cortex-m0
   3              		.fpu softvfp
   4              		.eabi_attribute 20, 1
   5              		.eabi_attribute 21, 1
   6              		.eabi_attribute 23, 3
   7              		.eabi_attribute 24, 1
   8              		.eabi_attribute 25, 1
   9              		.eabi_attribute 26, 1
  10              		.eabi_attribute 30, 1
  11              		.eabi_attribute 34, 0
  12              		.eabi_attribute 18, 4
  13              		.thumb
  14              		.syntax unified
  15              		.file	"main.c"
  16              		.text
  17              	.Ltext0:
  18              		.cfi_sections	.debug_frame
  19              		.section	.text.InterruptHandler,"ax",%progbits
  20              		.align	2
  21              		.global	InterruptHandler
  22              		.code	16
  23              		.thumb_func
  24              		.type	InterruptHandler, %function
  25              	InterruptHandler:
  26              	.LFB33:
  27              		.file 1 "main.c"
   1:main.c        **** /* ========================================
   2:main.c        ****  * Aasys Sresta
   3:main.c        ****  * 02/15/2018
   4:main.c        ****  * ========================================
   5:main.c        **** */
   6:main.c        **** #include "project.h"
   7:main.c        **** #include <stdio.h>
   8:main.c        **** 
   9:main.c        **** // variable and flag
  10:main.c        **** uint32 t0;
  11:main.c        **** uint32 Period;
  12:main.c        **** uint8 data_ready = 0;
  13:main.c        **** 
  14:main.c        **** // Interrupt routine: reads new count updates
  15:main.c        **** // old count t0 and flags control loop
  16:main.c        **** CY_ISR(InterruptHandler) {
  28              		.loc 1 16 0
  29              		.cfi_startproc
  30              		@ args = 0, pretend = 0, frame = 0
  31              		@ frame_needed = 0, uses_anonymous_args = 0
  32 0000 10B5     		push	{r4, lr}
  33              		.cfi_def_cfa_offset 8
  34              		.cfi_offset 4, -8
  35              		.cfi_offset 14, -4
  17:main.c        ****     Timer_ClearInterrupt(Timer_INTR_MASK_CC_MATCH);
  36              		.loc 1 17 0
  37 0002 0220     		movs	r0, #2
  38 0004 FFF7FEFF 		bl	Timer_ClearInterrupt
  39              	.LVL0:
  18:main.c        ****     Period = Timer_ReadCapture() - t0;
ARM GAS  C:\Users\aasys\AppData\Local\Temp\ccWD6EIn.s 			page 2


  40              		.loc 1 18 0
  41 0008 FFF7FEFF 		bl	Timer_ReadCapture
  42              	.LVL1:
  43 000c 054C     		ldr	r4, .L2
  44 000e 2368     		ldr	r3, [r4]
  45 0010 C01A     		subs	r0, r0, r3
  46 0012 054B     		ldr	r3, .L2+4
  47 0014 1860     		str	r0, [r3]
  19:main.c        ****     t0 = Timer_ReadCapture(); // update  old count
  48              		.loc 1 19 0
  49 0016 FFF7FEFF 		bl	Timer_ReadCapture
  50              	.LVL2:
  51 001a 2060     		str	r0, [r4]
  20:main.c        ****     data_ready = 1; // flag control loop data ready
  52              		.loc 1 20 0
  53 001c 0122     		movs	r2, #1
  54 001e 034B     		ldr	r3, .L2+8
  55 0020 1A70     		strb	r2, [r3]
  21:main.c        **** }
  56              		.loc 1 21 0
  57              		@ sp needed
  58 0022 10BD     		pop	{r4, pc}
  59              	.L3:
  60              		.align	2
  61              	.L2:
  62 0024 00000000 		.word	t0
  63 0028 00000000 		.word	Period
  64 002c 00000000 		.word	.LANCHOR0
  65              		.cfi_endproc
  66              	.LFE33:
  67              		.size	InterruptHandler, .-InterruptHandler
  68              		.section	.text.printInt,"ax",%progbits
  69              		.align	2
  70              		.global	printInt
  71              		.code	16
  72              		.thumb_func
  73              		.type	printInt, %function
  74              	printInt:
  75              	.LFB34:
  22:main.c        **** 
  23:main.c        **** // Function print integer to serial terminal
  24:main.c        **** // sprintf prints int to string at buffer
  25:main.c        **** // UartPutString prints string on serial terminal
  26:main.c        **** void printInt(int i) {
  76              		.loc 1 26 0
  77              		.cfi_startproc
  78              		@ args = 0, pretend = 0, frame = 16
  79              		@ frame_needed = 0, uses_anonymous_args = 0
  80              	.LVL3:
  81 0000 00B5     		push	{lr}
  82              		.cfi_def_cfa_offset 4
  83              		.cfi_offset 14, -4
  84 0002 85B0     		sub	sp, sp, #20
  85              		.cfi_def_cfa_offset 24
  86 0004 0200     		movs	r2, r0
  27:main.c        ****     char buffer[10];
  28:main.c        ****     sprintf(buffer, "%d", i);    
ARM GAS  C:\Users\aasys\AppData\Local\Temp\ccWD6EIn.s 			page 3


  87              		.loc 1 28 0
  88 0006 0749     		ldr	r1, .L5
  89 0008 01A8     		add	r0, sp, #4
  90              	.LVL4:
  91 000a FFF7FEFF 		bl	sprintf
  92              	.LVL5:
  29:main.c        ****     UART_UartPutString(buffer);
  93              		.loc 1 29 0
  94 000e 01A8     		add	r0, sp, #4
  95 0010 FFF7FEFF 		bl	UART_UartPutString
  96              	.LVL6:
  30:main.c        ****     UART_UartPutChar(10); // ascii space
  97              		.loc 1 30 0
  98 0014 0A20     		movs	r0, #10
  99 0016 FFF7FEFF 		bl	UART_SpiUartWriteTxData
 100              	.LVL7:
  31:main.c        ****     UART_UartPutChar(13); // ascii return
 101              		.loc 1 31 0
 102 001a 0D20     		movs	r0, #13
 103 001c FFF7FEFF 		bl	UART_SpiUartWriteTxData
 104              	.LVL8:
  32:main.c        **** }
 105              		.loc 1 32 0
 106 0020 05B0     		add	sp, sp, #20
 107              		@ sp needed
 108 0022 00BD     		pop	{pc}
 109              	.L6:
 110              		.align	2
 111              	.L5:
 112 0024 00000000 		.word	.LC3
 113              		.cfi_endproc
 114              	.LFE34:
 115              		.size	printInt, .-printInt
 116              		.section	.text.main,"ax",%progbits
 117              		.align	2
 118              		.global	main
 119              		.code	16
 120              		.thumb_func
 121              		.type	main, %function
 122              	main:
 123              	.LFB35:
  33:main.c        **** 
  34:main.c        **** int main(void)
  35:main.c        **** {
 124              		.loc 1 35 0
 125              		.cfi_startproc
 126              		@ Volatile: function does not return.
 127              		@ args = 0, pretend = 0, frame = 0
 128              		@ frame_needed = 0, uses_anonymous_args = 0
 129 0000 10B5     		push	{r4, lr}
 130              		.cfi_def_cfa_offset 8
 131              		.cfi_offset 4, -8
 132              		.cfi_offset 14, -4
  36:main.c        ****    CyGlobalIntEnable; /* Enable global interrupts. */
 133              		.loc 1 36 0
 134              		.syntax divided
 135              	@ 36 "main.c" 1
ARM GAS  C:\Users\aasys\AppData\Local\Temp\ccWD6EIn.s 			page 4


 136 0002 62B6     		CPSIE   i
 137              	@ 0 "" 2
  37:main.c        ****     
  38:main.c        ****     CC_ISR_StartEx(InterruptHandler); // set interrupt address
 138              		.loc 1 38 0
 139              		.thumb
 140              		.syntax unified
 141 0004 0B48     		ldr	r0, .L10
 142 0006 FFF7FEFF 		bl	CC_ISR_StartEx
 143              	.LVL9:
  39:main.c        ****     
  40:main.c        ****     UART_Start();  // Start UART
 144              		.loc 1 40 0
 145 000a FFF7FEFF 		bl	UART_Start
 146              	.LVL10:
  41:main.c        ****     PWM_Start();   // Start PWM
 147              		.loc 1 41 0
 148 000e FFF7FEFF 		bl	PWM_Start
 149              	.LVL11:
  42:main.c        ****     Timer_Start(); // Start Timer
 150              		.loc 1 42 0
 151 0012 FFF7FEFF 		bl	Timer_Start
 152              	.LVL12:
 153              	.L8:
  43:main.c        **** 
  44:main.c        ****     // Control Loop
  45:main.c        ****     for(;;)
  46:main.c        ****     {
  47:main.c        ****         if (data_ready == 1) {
 154              		.loc 1 47 0
 155 0016 084B     		ldr	r3, .L10+4
 156 0018 1B78     		ldrb	r3, [r3]
 157 001a 012B     		cmp	r3, #1
 158 001c FBD1     		bne	.L8
  48:main.c        ****             CyDelay(200); // delay 200ms for terminal print 
 159              		.loc 1 48 0
 160 001e C820     		movs	r0, #200
 161 0020 FFF7FEFF 		bl	CyDelay
 162              	.LVL13:
  49:main.c        ****             printInt(Period);
 163              		.loc 1 49 0
 164 0024 054B     		ldr	r3, .L10+8
 165 0026 1868     		ldr	r0, [r3]
 166 0028 FFF7FEFF 		bl	printInt
 167              	.LVL14:
  50:main.c        ****             data_ready = 0;
 168              		.loc 1 50 0
 169 002c 0022     		movs	r2, #0
 170 002e 024B     		ldr	r3, .L10+4
 171 0030 1A70     		strb	r2, [r3]
 172 0032 F0E7     		b	.L8
 173              	.L11:
 174              		.align	2
 175              	.L10:
 176 0034 00000000 		.word	InterruptHandler
 177 0038 00000000 		.word	.LANCHOR0
 178 003c 00000000 		.word	Period
ARM GAS  C:\Users\aasys\AppData\Local\Temp\ccWD6EIn.s 			page 5


 179              		.cfi_endproc
 180              	.LFE35:
 181              		.size	main, .-main
 182              		.global	data_ready
 183              		.comm	Period,4,4
 184              		.comm	t0,4,4
 185              		.section	.rodata.str1.4,"aMS",%progbits,1
 186              		.align	2
 187              	.LC3:
 188 0000 256400   		.ascii	"%d\000"
 189              		.bss
 190              		.set	.LANCHOR0,. + 0
 191              		.type	data_ready, %object
 192              		.size	data_ready, 1
 193              	data_ready:
 194 0000 00       		.space	1
 195              		.text
 196              	.Letext0:
 197              		.file 2 "Generated_Source\\PSoC4/cytypes.h"
 198              		.file 3 "Generated_Source\\PSoC4/Timer.h"
 199              		.file 4 "c:\\program files (x86)\\cypress\\psoc creator\\4.1\\psoc creator\\import\\gnu\\arm\\5.4.
 200              		.file 5 "Generated_Source\\PSoC4/UART_SPI_UART.h"
 201              		.file 6 "Generated_Source\\PSoC4/CC_ISR.h"
 202              		.file 7 "Generated_Source\\PSoC4/UART.h"
 203              		.file 8 "Generated_Source\\PSoC4/PWM.h"
 204              		.file 9 "Generated_Source\\PSoC4/CyLib.h"